target datalayout = "e-m:e-p270:32:32-p271:32:32-p272:64:64-i64:64-i128:128-f80:128-n8:16:32:64-S128"
target triple = "x86_64-pc-linux-gnu"

%struct.FT_ListRec_ = type { ptr, ptr }
%struct.FT_CharMapRec_ = type { ptr, i32, i16, i16 }
%struct.T42_FaceRec_ = type { %struct.FT_FaceRec_, %struct.T1_FontRec_, ptr, ptr, ptr, i64, ptr, [2 x %struct.FT_CharMapRec_], [2 x ptr], %struct.PS_UnicodesRec_ }
%struct.FT_FaceRec_ = type { i64, i64, i64, i64, i64, ptr, ptr, i32, ptr, i32, ptr, %struct.FT_Generic_, %struct.FT_BBox_, i16, i16, i16, i16, i16, i16, i16, i16, ptr, ptr, ptr, ptr, ptr, ptr, %struct.FT_ListRec_, %struct.FT_Generic_, ptr, ptr }
%struct.FT_BBox_ = type { i64, i64, i64, i64 }
%struct.FT_Generic_ = type { ptr, ptr }
%struct.T1_FontRec_ = type { %struct.PS_FontInfoRec_, %struct.PS_FontExtraRec_, %struct.PS_PrivateRec_, ptr, i32, %struct.T1_EncodingRecRec_, ptr, ptr, ptr, i32, ptr, ptr, ptr, i32, ptr, ptr, ptr, i8, i8, %struct.FT_Matrix_, %struct.FT_Vector_, %struct.FT_BBox_, i64, i64 }
%struct.PS_FontInfoRec_ = type { ptr, ptr, ptr, ptr, ptr, i64, i8, i16, i16 }
%struct.PS_FontExtraRec_ = type { i16 }
%struct.PS_PrivateRec_ = type { i32, i32, i8, i8, i8, i8, [14 x i16], [10 x i16], [14 x i16], [10 x i16], i64, i32, i32, [1 x i16], [1 x i16], i8, i8, i8, i8, [13 x i16], [13 x i16], i64, i64, i64, [2 x i16] }
%struct.T1_EncodingRecRec_ = type { i32, i32, i32, ptr, ptr }
%struct.FT_Matrix_ = type { i64, i64, i64, i64 }
%struct.FT_Vector_ = type { i64, i64 }
%struct.PS_UnicodesRec_ = type { %struct.FT_CMapRec_, i32, ptr }
%struct.FT_CMapRec_ = type { %struct.FT_CharMapRec_, ptr }
%struct.FT_SizeRec_ = type { ptr, %struct.FT_Generic_, %struct.FT_Size_Metrics_, ptr }
%struct.FT_Size_Metrics_ = type { i16, i16, i64, i64, i64, i64, i64, i64 }
%struct.T42_SizeRec_ = type { %struct.FT_SizeRec_, ptr }

; Function Attrs: nounwind uwtable
define internal i32 @T42_Size_Request(ptr noundef %0, ptr noundef %1) #0 {
  %3 = alloca ptr, align 8
  %4 = alloca ptr, align 8
  %5 = alloca ptr, align 8
  %6 = alloca ptr, align 8
  %7 = alloca i32, align 4
  store ptr %0, ptr %3, align 8, !tbaa !156
  store ptr %1, ptr %4, align 8, !tbaa !204
  call void @llvm.lifetime.start.p0(i64 8, ptr %5) #7
  %8 = load ptr, ptr %3, align 8, !tbaa !156
  store ptr %8, ptr %5, align 8, !tbaa !157
  call void @llvm.lifetime.start.p0(i64 8, ptr %6) #7
  %9 = load ptr, ptr %3, align 8, !tbaa !156
  %10 = getelementptr inbounds nuw %struct.FT_SizeRec_, ptr %9, i32 0, i32 0
  %11 = load ptr, ptr %10, align 8, !tbaa !159
  store ptr %11, ptr %6, align 8, !tbaa !33
  call void @llvm.lifetime.start.p0(i64 4, ptr %7) #7
  %12 = load ptr, ptr %5, align 8, !tbaa !157
  %13 = getelementptr inbounds nuw %struct.T42_SizeRec_, ptr %12, i32 0, i32 1
  %14 = load ptr, ptr %13, align 8, !tbaa !163
  %15 = call i32 @FT_Activate_Size(ptr noundef %14)
  %16 = load ptr, ptr %6, align 8, !tbaa !33
  %17 = getelementptr inbounds nuw %struct.T42_FaceRec_, ptr %16, i32 0, i32 6
  %18 = load ptr, ptr %17, align 8, !tbaa !39
  %19 = load ptr, ptr %4, align 8, !tbaa !204
  %20 = call i32 @FT_Request_Size(ptr noundef %18, ptr noundef %19)
  store i32 %20, ptr %7, align 4, !tbaa !29
  %21 = load i32, ptr %7, align 4, !tbaa !29
  %22 = icmp ne i32 %21, 0
  br i1 %22, label %32, label %23

23:                                               ; preds = %2
  %24 = load ptr, ptr %3, align 8, !tbaa !156
  %25 = getelementptr inbounds nuw %struct.FT_SizeRec_, ptr %24, i32 0, i32 2
  %26 = load ptr, ptr %6, align 8, !tbaa !33
  %27 = getelementptr inbounds nuw %struct.T42_FaceRec_, ptr %26, i32 0, i32 6
  %28 = load ptr, ptr %27, align 8, !tbaa !39
  %29 = getelementptr inbounds nuw %struct.FT_FaceRec_, ptr %28, i32 0, i32 22
  %30 = load ptr, ptr %29, align 8, !tbaa !104
  %31 = getelementptr inbounds nuw %struct.FT_SizeRec_, ptr %30, i32 0, i32 2
  call void @llvm.memcpy.p0.p0.i64(ptr align 8 %25, ptr align 8 %31, i64 56, i1 false), !tbaa.struct !206
  br label %32

32:                                               ; preds = %23, %2
  %33 = load i32, ptr %7, align 4, !tbaa !29
  call void @llvm.lifetime.end.p0(i64 4, ptr %7) #7
  call void @llvm.lifetime.end.p0(i64 8, ptr %6) #7
  call void @llvm.lifetime.end.p0(i64 8, ptr %5) #7
  ret i32 %33
}