; Function Attrs: nounwind uwtable
define internal i32 @T42_Size_Request(ptr noundef captures(none) %0, ptr noundef %1) #0 {
  %3 = load ptr, ptr %0, align 8, !tbaa !195
  %4 = getelementptr inbounds nuw i8, ptr %0, i64 88
  %5 = load ptr, ptr %4, align 8, !tbaa !200
  %6 = tail call i32 @FT_Activate_Size(ptr noundef %5) #13
  %7 = getelementptr inbounds nuw i8, ptr %3, i64 808
  %8 = load ptr, ptr %7, align 8, !tbaa !19
  %9 = tail call i32 @FT_Request_Size(ptr noundef %8, ptr noundef %1) #13
  %.not = icmp eq i32 %9, 0
  br i1 %.not, label %10, label %16

10:                                               ; preds = %2
  %11 = getelementptr inbounds nuw i8, ptr %0, i64 24
  %12 = load ptr, ptr %7, align 8, !tbaa !19
  %13 = getelementptr inbounds nuw i8, ptr %12, i64 160
  %14 = load ptr, ptr %13, align 8, !tbaa !167
  %15 = getelementptr inbounds nuw i8, ptr %14, i64 24
  tail call void @llvm.memcpy.p0.p0.i64(ptr noundef nonnull align 8 dereferenceable(56) %11, ptr noundef nonnull align 8 dereferenceable(56) %15, i64 56, i1 false), !tbaa.struct !237
  br label %16

16:                                               ; preds = %10, %2
  ret i32 %9
}